; Function Attrs: mustprogress nofree norecurse nosync nounwind willreturn memory(read, inaccessiblemem: none) uwtable
define range(i32 0, 2) i32 @Fra_LcrNodeIsConst(ptr noundef readonly captures(none) %0) #8 {
  %2 = getelementptr inbounds nuw i8, ptr %0, i64 40
  %3 = load ptr, ptr %2, align 8
  %4 = getelementptr inbounds nuw i8, ptr %3, i64 64
  %5 = load ptr, ptr %4, align 8
  %6 = getelementptr inbounds nuw i8, ptr %5, i64 24
  %7 = load ptr, ptr %6, align 8
  %8 = load ptr, ptr %0, align 8
  %9 = ptrtoint ptr %8 to i64
  %10 = getelementptr inbounds i32, ptr %7, i64 %9
  %11 = load i32, ptr %10, align 4
  %12 = getelementptr inbounds nuw i8, ptr %5, i64 40
  %13 = load ptr, ptr %12, align 8
  %14 = getelementptr i8, ptr %13, i64 8
  %.val = load ptr, ptr %14, align 8
  %15 = sext i32 %11 to i64
  %16 = getelementptr inbounds ptr, ptr %.val, i64 %15
  %17 = load ptr, ptr %16, align 8
  %18 = getelementptr inbounds nuw i8, ptr %5, i64 32
  %19 = load ptr, ptr %18, align 8
  %20 = getelementptr inbounds i32, ptr %19, i64 %9
  %21 = load i32, ptr %20, align 4
  %22 = getelementptr i8, ptr %17, i64 24
  %.val10 = load ptr, ptr %22, align 8
  %23 = getelementptr i8, ptr %.val10, i64 8
  %.val10.val = load ptr, ptr %23, align 8
  %24 = sext i32 %21 to i64
  %25 = getelementptr inbounds ptr, ptr %.val10.val, i64 %24
  %26 = load ptr, ptr %25, align 8
  %27 = getelementptr i8, ptr %26, i64 8
  %.val11 = load ptr, ptr %27, align 8
  %28 = ptrtoint ptr %.val11 to i64
  %29 = and i64 %28, -2
  %30 = inttoptr i64 %29 to ptr
  %31 = getelementptr i8, ptr %17, i64 48
  %.val12 = load ptr, ptr %31, align 8
  %32 = icmp eq ptr %.val12, %30
  %33 = zext i1 %32 to i32
  ret i32 %33
}